target datalayout = "e-m:e-p270:32:32-p271:32:32-p272:64:64-i64:64-i128:128-f80:128-n8:16:32:64-S128"
target triple = "x86_64-pc-linux-gnu"

%struct._object = type { %union.anon, ptr }
%union.anon = type { i64 }
%struct.PyMutex = type { i8 }
%struct._PyRecursiveMutex = type { %struct.PyMutex, i64, i64 }

@.str.11 = private unnamed_addr constant [49 x i8] c"../cpython/Modules/_testinternalcapi/test_lock.c\00", align 1
@_Py_NoneStruct = external global %struct._object, align 8
@.str.36 = private unnamed_addr constant [47 x i8] c"!_PyRecursiveMutex_IsLockedByCurrentThread(&m)\00", align 1
@__PRETTY_FUNCTION__.test_lock_recursive = private unnamed_addr constant [54 x i8] c"PyObject *test_lock_recursive(PyObject *, PyObject *)\00", align 1
@.str.37 = private unnamed_addr constant [43 x i8] c"m.thread == PyThread_get_thread_ident_ex()\00", align 1
@.str.38 = private unnamed_addr constant [27 x i8] c"PyMutex_IsLocked(&m.mutex)\00", align 1
@.str.39 = private unnamed_addr constant [13 x i8] c"m.level == 0\00", align 1
@.str.40 = private unnamed_addr constant [13 x i8] c"m.level == 1\00", align 1
@.str.41 = private unnamed_addr constant [14 x i8] c"m.thread == 0\00", align 1
@.str.42 = private unnamed_addr constant [28 x i8] c"!PyMutex_IsLocked(&m.mutex)\00", align 1

; Function Attrs: inlinehint nounwind uwtable
define internal zeroext i8 @_Py_atomic_load_uint8(ptr noundef %0) #4 {
  %2 = alloca ptr, align 8
  %3 = alloca i8, align 1
  store ptr %0, ptr %2, align 8, !tbaa !41
  %4 = load ptr, ptr %2, align 8, !tbaa !41
  %5 = load atomic i8, ptr %4 seq_cst, align 1
  store i8 %5, ptr %3, align 1
  %6 = load i8, ptr %3, align 1, !tbaa !15
  ret i8 %6
}

; Function Attrs: inlinehint nounwind uwtable
define internal i32 @PyMutex_IsLocked(ptr noundef %0) #4 {
  %2 = alloca ptr, align 8
  store ptr %0, ptr %2, align 8, !tbaa !39
  %3 = load ptr, ptr %2, align 8, !tbaa !39
  %4 = getelementptr inbounds nuw %struct.PyMutex, ptr %3, i32 0, i32 0
  %5 = call zeroext i8 @_Py_atomic_load_uint8(ptr noundef %4)
  %6 = zext i8 %5 to i32
  %7 = and i32 %6, 1
  %8 = icmp ne i32 %7, 0
  %9 = zext i1 %8 to i32
  ret i32 %9
}

; Function Attrs: nounwind uwtable
define internal ptr @test_lock_recursive(ptr noundef %0, ptr noundef %1) #0 {
  %3 = alloca ptr, align 8
  %4 = alloca ptr, align 8
  %5 = alloca %struct._PyRecursiveMutex, align 8
  store ptr %0, ptr %3, align 8, !tbaa !3
  store ptr %1, ptr %4, align 8, !tbaa !3
  call void @llvm.lifetime.start.p0(i64 24, ptr %5) #8
  call void @llvm.memset.p0.i64(ptr align 8 %5, i8 0, i64 24, i1 false)
  %6 = call i32 @_PyRecursiveMutex_IsLockedByCurrentThread(ptr noundef %5)
  %7 = icmp ne i32 %6, 0
  br i1 %7, label %9, label %8

8:                                                ; preds = %2
  br label %11

9:                                                ; preds = %2
  call void @__assert_fail(ptr noundef @.str.36, ptr noundef @.str.11, i32 noundef 484, ptr noundef @__PRETTY_FUNCTION__.test_lock_recursive) #9
  unreachable

10:                                               ; No predecessors!
  br label %11

11:                                               ; preds = %10, %8
  call void @_PyRecursiveMutex_Lock(ptr noundef %5)
  %12 = getelementptr inbounds nuw %struct._PyRecursiveMutex, ptr %5, i32 0, i32 1
  %13 = load i64, ptr %12, align 8, !tbaa !35
  %14 = call i64 @PyThread_get_thread_ident_ex()
  %15 = icmp eq i64 %13, %14
  br i1 %15, label %16, label %17

16:                                               ; preds = %11
  br label %19

17:                                               ; preds = %11
  call void @__assert_fail(ptr noundef @.str.37, ptr noundef @.str.11, i32 noundef 487, ptr noundef @__PRETTY_FUNCTION__.test_lock_recursive) #9
  unreachable

18:                                               ; No predecessors!
  br label %19

19:                                               ; preds = %18, %16
  %20 = getelementptr inbounds nuw %struct._PyRecursiveMutex, ptr %5, i32 0, i32 0
  %21 = call i32 @PyMutex_IsLocked(ptr noundef %20)
  %22 = icmp ne i32 %21, 0
  br i1 %22, label %23, label %24

23:                                               ; preds = %19
  br label %26

24:                                               ; preds = %19
  call void @__assert_fail(ptr noundef @.str.38, ptr noundef @.str.11, i32 noundef 488, ptr noundef @__PRETTY_FUNCTION__.test_lock_recursive) #9
  unreachable

25:                                               ; No predecessors!
  br label %26

26:                                               ; preds = %25, %23
  %27 = getelementptr inbounds nuw %struct._PyRecursiveMutex, ptr %5, i32 0, i32 2
  %28 = load i64, ptr %27, align 8, !tbaa !38
  %29 = icmp eq i64 %28, 0
  br i1 %29, label %30, label %31

30:                                               ; preds = %26
  br label %33

31:                                               ; preds = %26
  call void @__assert_fail(ptr noundef @.str.39, ptr noundef @.str.11, i32 noundef 489, ptr noundef @__PRETTY_FUNCTION__.test_lock_recursive) #9
  unreachable

32:                                               ; No predecessors!
  br label %33

33:                                               ; preds = %32, %30
  call void @_PyRecursiveMutex_Lock(ptr noundef %5)
  %34 = getelementptr inbounds nuw %struct._PyRecursiveMutex, ptr %5, i32 0, i32 2
  %35 = load i64, ptr %34, align 8, !tbaa !38
  %36 = icmp eq i64 %35, 1
  br i1 %36, label %37, label %38

37:                                               ; preds = %33
  br label %40

38:                                               ; preds = %33
  call void @__assert_fail(ptr noundef @.str.40, ptr noundef @.str.11, i32 noundef 492, ptr noundef @__PRETTY_FUNCTION__.test_lock_recursive) #9
  unreachable

39:                                               ; No predecessors!
  br label %40

40:                                               ; preds = %39, %37
  call void @_PyRecursiveMutex_Unlock(ptr noundef %5)
  call void @_PyRecursiveMutex_Unlock(ptr noundef %5)
  %41 = getelementptr inbounds nuw %struct._PyRecursiveMutex, ptr %5, i32 0, i32 1
  %42 = load i64, ptr %41, align 8, !tbaa !35
  %43 = icmp eq i64 %42, 0
  br i1 %43, label %44, label %45

44:                                               ; preds = %40
  br label %47

45:                                               ; preds = %40
  call void @__assert_fail(ptr noundef @.str.41, ptr noundef @.str.11, i32 noundef 496, ptr noundef @__PRETTY_FUNCTION__.test_lock_recursive) #9
  unreachable

46:                                               ; No predecessors!
  br label %47

47:                                               ; preds = %46, %44
  %48 = getelementptr inbounds nuw %struct._PyRecursiveMutex, ptr %5, i32 0, i32 0
  %49 = call i32 @PyMutex_IsLocked(ptr noundef %48)
  %50 = icmp ne i32 %49, 0
  br i1 %50, label %52, label %51

51:                                               ; preds = %47
  br label %54

52:                                               ; preds = %47
  call void @__assert_fail(ptr noundef @.str.42, ptr noundef @.str.11, i32 noundef 497, ptr noundef @__PRETTY_FUNCTION__.test_lock_recursive) #9
  unreachable

53:                                               ; No predecessors!
  br label %54

54:                                               ; preds = %53, %51
  %55 = getelementptr inbounds nuw %struct._PyRecursiveMutex, ptr %5, i32 0, i32 2
  %56 = load i64, ptr %55, align 8, !tbaa !38
  %57 = icmp eq i64 %56, 0
  br i1 %57, label %58, label %59

58:                                               ; preds = %54
  br label %61

59:                                               ; preds = %54
  call void @__assert_fail(ptr noundef @.str.39, ptr noundef @.str.11, i32 noundef 498, ptr noundef @__PRETTY_FUNCTION__.test_lock_recursive) #9
  unreachable

60:                                               ; No predecessors!
  br label %61

61:                                               ; preds = %60, %58
  call void @llvm.lifetime.end.p0(i64 24, ptr %5) #8
  ret ptr @_Py_NoneStruct
}