; Function Attrs: nounwind uwtable
define internal noundef nonnull ptr @test_lock_recursive(ptr readnone captures(none) %0, ptr readnone captures(none) %1) #0 {
  %3 = alloca %struct._PyRecursiveMutex, align 8
  call void @llvm.lifetime.start.p0(i64 24, ptr nonnull %3) #6
  call void @llvm.memset.p0.i64(ptr noundef nonnull align 8 dereferenceable(24) %3, i8 0, i64 24, i1 false)
  %4 = call i32 @_PyRecursiveMutex_IsLockedByCurrentThread(ptr noundef nonnull %3) #6
  %.not = icmp eq i32 %4, 0
  br i1 %.not, label %6, label %5

5:                                                ; preds = %2
  call void @__assert_fail(ptr noundef nonnull @.str.36, ptr noundef nonnull @.str.11, i32 noundef 484, ptr noundef nonnull @__PRETTY_FUNCTION__.test_lock_recursive) #7
  unreachable

6:                                                ; preds = %2
  call void @_PyRecursiveMutex_Lock(ptr noundef nonnull %3) #6
  %7 = getelementptr inbounds nuw i8, ptr %3, i64 8
  %8 = load i64, ptr %7, align 8, !tbaa !33
  %9 = call i64 @PyThread_get_thread_ident_ex() #6
  %10 = icmp eq i64 %8, %9
  br i1 %10, label %12, label %11

11:                                               ; preds = %6
  call void @__assert_fail(ptr noundef nonnull @.str.37, ptr noundef nonnull @.str.11, i32 noundef 487, ptr noundef nonnull @__PRETTY_FUNCTION__.test_lock_recursive) #7
  unreachable

12:                                               ; preds = %6
  %13 = load atomic i8, ptr %3 seq_cst, align 8
  %14 = and i8 %13, 1
  %.not1 = icmp eq i8 %14, 0
  br i1 %.not1, label %15, label %16

15:                                               ; preds = %12
  call void @__assert_fail(ptr noundef nonnull @.str.38, ptr noundef nonnull @.str.11, i32 noundef 488, ptr noundef nonnull @__PRETTY_FUNCTION__.test_lock_recursive) #7
  unreachable

16:                                               ; preds = %12
  %17 = getelementptr inbounds nuw i8, ptr %3, i64 16
  %18 = load i64, ptr %17, align 8, !tbaa !36
  %19 = icmp eq i64 %18, 0
  br i1 %19, label %21, label %20

20:                                               ; preds = %16
  call void @__assert_fail(ptr noundef nonnull @.str.39, ptr noundef nonnull @.str.11, i32 noundef 489, ptr noundef nonnull @__PRETTY_FUNCTION__.test_lock_recursive) #7
  unreachable

21:                                               ; preds = %16
  call void @_PyRecursiveMutex_Lock(ptr noundef nonnull %3) #6
  %22 = load i64, ptr %17, align 8, !tbaa !36
  %23 = icmp eq i64 %22, 1
  br i1 %23, label %25, label %24

24:                                               ; preds = %21
  call void @__assert_fail(ptr noundef nonnull @.str.40, ptr noundef nonnull @.str.11, i32 noundef 492, ptr noundef nonnull @__PRETTY_FUNCTION__.test_lock_recursive) #7
  unreachable

25:                                               ; preds = %21
  call void @_PyRecursiveMutex_Unlock(ptr noundef nonnull %3) #6
  call void @_PyRecursiveMutex_Unlock(ptr noundef nonnull %3) #6
  %26 = load i64, ptr %7, align 8, !tbaa !33
  %27 = icmp eq i64 %26, 0
  br i1 %27, label %29, label %28

28:                                               ; preds = %25
  call void @__assert_fail(ptr noundef nonnull @.str.41, ptr noundef nonnull @.str.11, i32 noundef 496, ptr noundef nonnull @__PRETTY_FUNCTION__.test_lock_recursive) #7
  unreachable

29:                                               ; preds = %25
  %30 = load atomic i8, ptr %3 seq_cst, align 8
  %31 = and i8 %30, 1
  %.not2 = icmp eq i8 %31, 0
  br i1 %.not2, label %33, label %32

32:                                               ; preds = %29
  call void @__assert_fail(ptr noundef nonnull @.str.42, ptr noundef nonnull @.str.11, i32 noundef 497, ptr noundef nonnull @__PRETTY_FUNCTION__.test_lock_recursive) #7
  unreachable

33:                                               ; preds = %29
  %34 = load i64, ptr %17, align 8, !tbaa !36
  %35 = icmp eq i64 %34, 0
  br i1 %35, label %37, label %36

36:                                               ; preds = %33
  call void @__assert_fail(ptr noundef nonnull @.str.39, ptr noundef nonnull @.str.11, i32 noundef 498, ptr noundef nonnull @__PRETTY_FUNCTION__.test_lock_recursive) #7
  unreachable

37:                                               ; preds = %33
  call void @llvm.lifetime.end.p0(i64 24, ptr nonnull %3) #6
  ret ptr @_Py_NoneStruct
}